target datalayout = "e-m:e-p270:32:32-p271:32:32-p272:64:64-i64:64-i128:128-f80:128-n8:16:32:64-S128"
target triple = "x86_64-pc-linux-gnu"

%struct.nameData = type { [64 x i8] }
%struct.ReplicationSlot = type { i8, i8, i32, i8, i8, i32, i32, %struct.ReplicationSlotPersistentData, %struct.LWLock, %struct.ConditionVariable, i32, i64, i64, i64, i64, i64 }
%struct.ReplicationSlotPersistentData = type { %struct.nameData, i32, i32, i32, i32, i64, i32, i64, i64, i8, %struct.nameData, i8, i8 }
%struct.LWLock = type { i16, %struct.pg_atomic_uint32, %struct.proclist_head }
%struct.pg_atomic_uint32 = type { i32 }
%struct.proclist_head = type { i32, i32 }
%struct.ConditionVariable = type { i8, %struct.proclist_head }

@.str.1 = private unnamed_addr constant [10 x i8] c"logical.c\00", align 1
@MyReplicationSlot = external global ptr, align 8
@__func__.LogicalIncreaseXminForSlot = private unnamed_addr constant [27 x i8] c"LogicalIncreaseXminForSlot\00", align 1
@.str.22 = private unnamed_addr constant [33 x i8] c"got new catalog xmin %u at %X/%X\00", align 1

; Function Attrs: inlinehint nounwind uwtable
define internal i32 @tas(ptr noundef %0) #4 {
  %2 = alloca ptr, align 8
  %3 = alloca i8, align 1
  store ptr %0, ptr %2, align 8
  call void @llvm.lifetime.start.p0(i64 1, ptr %3) #10
  store i8 1, ptr %3, align 1
  %4 = load i8, ptr %3, align 1
  %5 = load ptr, ptr %2, align 8
  %6 = call i8 asm sideeffect "\09lock\09\09\09\0A\09xchgb\09$0,$1\09\0A", "=q,=*m,0,*m,~{memory},~{cc},~{dirflag},~{fpsr},~{flags}"(ptr elementtype(i8) %5, i8 %4, ptr elementtype(i8) %5) #10, !srcloc !9
  store i8 %6, ptr %3, align 1
  %7 = load i8, ptr %3, align 1
  %8 = zext i8 %7 to i32
  call void @llvm.lifetime.end.p0(i64 1, ptr %3) #10
  ret i32 %8
}

; Function Attrs: nounwind uwtable
define dso_local void @LogicalIncreaseXminForSlot(i64 noundef %0, i32 noundef %1) #0 {
  %3 = alloca i64, align 8
  %4 = alloca i32, align 4
  %5 = alloca i8, align 1
  %6 = alloca ptr, align 8
  %7 = alloca i8, align 1
  %8 = alloca i32, align 4
  store i64 %0, ptr %3, align 8
  store i32 %1, ptr %4, align 4
  call void @llvm.lifetime.start.p0(i64 1, ptr %5) #10
  store i8 0, ptr %5, align 1
  call void @llvm.lifetime.start.p0(i64 8, ptr %6) #10
  call void @llvm.lifetime.start.p0(i64 1, ptr %7) #10
  store i8 0, ptr %7, align 1
  %9 = load ptr, ptr @MyReplicationSlot, align 8
  store ptr %9, ptr %6, align 8
  %10 = load ptr, ptr %6, align 8
  %11 = getelementptr inbounds nuw %struct.ReplicationSlot, ptr %10, i32 0, i32 0
  %12 = call i32 @tas(ptr noundef %11)
  %13 = icmp ne i32 %12, 0
  br i1 %13, label %14, label %18

14:                                               ; preds = %2
  %15 = load ptr, ptr %6, align 8
  %16 = getelementptr inbounds nuw %struct.ReplicationSlot, ptr %15, i32 0, i32 0
  %17 = call i32 @s_lock(ptr noundef %16, ptr noundef @.str.1, i32 noundef 1684, ptr noundef @__func__.LogicalIncreaseXminForSlot)
  br label %19

18:                                               ; preds = %2
  br label %19

19:                                               ; preds = %18, %14
  %20 = load i32, ptr %4, align 4
  %21 = load ptr, ptr %6, align 8
  %22 = getelementptr inbounds nuw %struct.ReplicationSlot, ptr %21, i32 0, i32 7
  %23 = getelementptr inbounds nuw %struct.ReplicationSlotPersistentData, ptr %22, i32 0, i32 4
  %24 = load i32, ptr %23, align 4
  %25 = call zeroext i1 @TransactionIdPrecedesOrEquals(i32 noundef %20, i32 noundef %24)
  br i1 %25, label %26, label %27

26:                                               ; preds = %19
  br label %55

27:                                               ; preds = %19
  %28 = load i64, ptr %3, align 8
  %29 = load ptr, ptr %6, align 8
  %30 = getelementptr inbounds nuw %struct.ReplicationSlot, ptr %29, i32 0, i32 7
  %31 = getelementptr inbounds nuw %struct.ReplicationSlotPersistentData, ptr %30, i32 0, i32 7
  %32 = load i64, ptr %31, align 8
  %33 = icmp ule i64 %28, %32
  br i1 %33, label %34, label %41

34:                                               ; preds = %27
  %35 = load i32, ptr %4, align 4
  %36 = load ptr, ptr %6, align 8
  %37 = getelementptr inbounds nuw %struct.ReplicationSlot, ptr %36, i32 0, i32 10
  store i32 %35, ptr %37, align 4
  %38 = load i64, ptr %3, align 8
  %39 = load ptr, ptr %6, align 8
  %40 = getelementptr inbounds nuw %struct.ReplicationSlot, ptr %39, i32 0, i32 11
  store i64 %38, ptr %40, align 8
  store i8 1, ptr %5, align 1
  br label %54

41:                                               ; preds = %27
  %42 = load ptr, ptr %6, align 8
  %43 = getelementptr inbounds nuw %struct.ReplicationSlot, ptr %42, i32 0, i32 11
  %44 = load i64, ptr %43, align 8
  %45 = icmp eq i64 %44, 0
  br i1 %45, label %46, label %53

46:                                               ; preds = %41
  %47 = load i32, ptr %4, align 4
  %48 = load ptr, ptr %6, align 8
  %49 = getelementptr inbounds nuw %struct.ReplicationSlot, ptr %48, i32 0, i32 10
  store i32 %47, ptr %49, align 4
  %50 = load i64, ptr %3, align 8
  %51 = load ptr, ptr %6, align 8
  %52 = getelementptr inbounds nuw %struct.ReplicationSlot, ptr %51, i32 0, i32 11
  store i64 %50, ptr %52, align 8
  store i8 1, ptr %7, align 1
  br label %53

53:                                               ; preds = %46, %41
  br label %54

54:                                               ; preds = %53, %34
  br label %55

55:                                               ; preds = %54, %26
  br label %56

56:                                               ; preds = %55
  call void asm sideeffect "", "~{memory},~{dirflag},~{fpsr},~{flags}"() #10, !srcloc !12
  %57 = load ptr, ptr %6, align 8
  %58 = getelementptr inbounds nuw %struct.ReplicationSlot, ptr %57, i32 0, i32 0
  store i8 0, ptr %58, align 8
  br label %59

59:                                               ; preds = %56
  br label %60

60:                                               ; preds = %59
  %61 = load i8, ptr %7, align 1, !range !6, !noundef !7
  %62 = trunc i8 %61 to i1
  br i1 %62, label %63, label %83

63:                                               ; preds = %60
  br label %64

64:                                               ; preds = %63
  br i1 false, label %65, label %67

65:                                               ; preds = %64
  %66 = call zeroext i1 @errstart_cold(i32 noundef 14, ptr noundef null) #9
  br i1 %66, label %69, label %80

67:                                               ; preds = %64
  %68 = call zeroext i1 @errstart(i32 noundef 14, ptr noundef null)
  br i1 %68, label %69, label %80

69:                                               ; preds = %67, %65
  %70 = load i32, ptr %4, align 4
  br label %71

71:                                               ; preds = %69
  br label %72

72:                                               ; preds = %71
  br label %73

73:                                               ; preds = %72
  store i32 1, ptr %8, align 4
  %74 = load i64, ptr %3, align 8
  %75 = lshr i64 %74, 32
  %76 = trunc i64 %75 to i32
  %77 = load i64, ptr %3, align 8
  %78 = trunc i64 %77 to i32
  %79 = call i32 (ptr, ...) @errmsg_internal(ptr noundef @.str.22, i32 noundef %70, i32 noundef %76, i32 noundef %78)
  call void @errfinish(ptr noundef @.str.1, i32 noundef 1727, ptr noundef @__func__.LogicalIncreaseXminForSlot)
  br label %80

80:                                               ; preds = %73, %67, %65
  br label %81

81:                                               ; preds = %80
  br label %82

82:                                               ; preds = %81
  br label %83

83:                                               ; preds = %82, %60
  %84 = load i8, ptr %5, align 1, !range !6, !noundef !7
  %85 = trunc i8 %84 to i1
  br i1 %85, label %86, label %91

86:                                               ; preds = %83
  %87 = load ptr, ptr %6, align 8
  %88 = getelementptr inbounds nuw %struct.ReplicationSlot, ptr %87, i32 0, i32 7
  %89 = getelementptr inbounds nuw %struct.ReplicationSlotPersistentData, ptr %88, i32 0, i32 7
  %90 = load i64, ptr %89, align 8
  call void @LogicalConfirmReceivedLocation(i64 noundef %90)
  br label %91

91:                                               ; preds = %86, %83
  call void @llvm.lifetime.end.p0(i64 1, ptr %7) #10
  call void @llvm.lifetime.end.p0(i64 8, ptr %6) #10
  call void @llvm.lifetime.end.p0(i64 1, ptr %5) #10
  ret void
}