; Function Attrs: nounwind uwtable
define dso_local void @LogicalIncreaseXminForSlot(i64 noundef %0, i32 noundef %1) local_unnamed_addr #0 {
  %3 = load ptr, ptr @MyReplicationSlot, align 8
  %4 = tail call i8 asm sideeffect "\09lock\09\09\09\0A\09xchgb\09$0,$1\09\0A", "=q,=*m,0,*m,~{memory},~{cc},~{dirflag},~{fpsr},~{flags}"(ptr elementtype(i8) %3, i8 1, ptr elementtype(i8) %3) #10, !srcloc !4
  %.not = icmp eq i8 %4, 0
  br i1 %.not, label %7, label %5

5:                                                ; preds = %2
  %6 = tail call i32 @s_lock(ptr noundef %3, ptr noundef nonnull @.str.1, i32 noundef 1684, ptr noundef nonnull @__func__.LogicalIncreaseXminForSlot) #10
  br label %7

7:                                                ; preds = %2, %5
  %8 = getelementptr inbounds nuw i8, ptr %3, i64 100
  %9 = load i32, ptr %8, align 4
  %10 = tail call zeroext i1 @TransactionIdPrecedesOrEquals(i32 noundef %1, i32 noundef %9) #10
  br i1 %10, label %.thread31, label %11

11:                                               ; preds = %7
  %12 = getelementptr inbounds nuw i8, ptr %3, i64 120
  %13 = load i64, ptr %12, align 8
  %.not23 = icmp ugt i64 %0, %13
  br i1 %.not23, label %14, label %26

14:                                               ; preds = %11
  %15 = getelementptr inbounds nuw i8, ptr %3, i64 240
  %16 = load i64, ptr %15, align 8
  %17 = icmp eq i64 %16, 0
  br i1 %17, label %18, label %.thread31

18:                                               ; preds = %14
  %19 = getelementptr inbounds nuw i8, ptr %3, i64 236
  store i32 %1, ptr %19, align 4
  store i64 %0, ptr %15, align 8
  tail call void asm sideeffect "", "~{memory},~{dirflag},~{fpsr},~{flags}"() #10, !srcloc !13
  store i8 0, ptr %3, align 8
  %20 = tail call zeroext i1 @errstart(i32 noundef 14, ptr noundef null) #10
  br i1 %20, label %21, label %.thread28

21:                                               ; preds = %18
  %22 = lshr i64 %0, 32
  %23 = trunc nuw i64 %22 to i32
  %24 = trunc i64 %0 to i32
  %25 = tail call i32 (ptr, ...) @errmsg_internal(ptr noundef nonnull @.str.22, i32 noundef %1, i32 noundef %23, i32 noundef %24) #10
  tail call void @errfinish(ptr noundef nonnull @.str.1, i32 noundef 1727, ptr noundef nonnull @__func__.LogicalIncreaseXminForSlot) #10
  br label %.thread28

.thread31:                                        ; preds = %14, %7
  tail call void asm sideeffect "", "~{memory},~{dirflag},~{fpsr},~{flags}"() #10, !srcloc !13
  store i8 0, ptr %3, align 8
  br label %.thread28

26:                                               ; preds = %11
  %27 = getelementptr inbounds nuw i8, ptr %3, i64 236
  store i32 %1, ptr %27, align 4
  %28 = getelementptr inbounds nuw i8, ptr %3, i64 240
  store i64 %0, ptr %28, align 8
  tail call void asm sideeffect "", "~{memory},~{dirflag},~{fpsr},~{flags}"() #10, !srcloc !13
  store i8 0, ptr %3, align 8
  %29 = load i64, ptr %12, align 8
  tail call void @LogicalConfirmReceivedLocation(i64 noundef %29)
  br label %.thread28

.thread28:                                        ; preds = %21, %18, %.thread31, %26
  ret void
}